; Function Attrs: mustprogress uwtable
define internal fastcc void @_Z6cmJoinIN12_GLOBAL__N_15RangeISt6vectorINSt7__cxx1112basic_stringIcSt11char_traitsIcESaIcEEESaIS8_EEEEES8_RKT_St17basic_string_viewIcS6_E(ptr dead_on_unwind noalias writable align 8 %0, ptr nocapture noundef nonnull readonly align 8 dereferenceable(16) %1, i64 %2, ptr %3) unnamed_addr #3 personality ptr @__gxx_personality_v0 {
  %5 = alloca %"class.std::__cxx11::basic_ostringstream", align 8
  %6 = getelementptr inbounds i8, ptr %1, i64 8
  %7 = load ptr, ptr %1, align 8
  %8 = load ptr, ptr %6, align 8
  %9 = icmp eq ptr %7, %8
  br i1 %9, label %10, label %11

10:                                               ; preds = %4
  tail call void @_ZNSt7__cxx1112basic_stringIcSt11char_traitsIcESaIcEEC1Ev(ptr noundef nonnull align 8 dereferenceable(32) %0) #23
  br label %20

11:                                               ; preds = %4
  call void @_ZNSt7__cxx1119basic_ostringstreamIcSt11char_traitsIcESaIcEEC1Ev(ptr noundef nonnull align 8 dereferenceable(112) %5)
  %.sroa.0.0.copyload.i = load ptr, ptr %1, align 8
  %.sroa.0.0.copyload.i6 = load ptr, ptr %6, align 8
  %12 = invoke noundef nonnull align 8 dereferenceable(8) ptr @_ZStlsIcSt11char_traitsIcESaIcEERSt13basic_ostreamIT_T0_ES7_RKNSt7__cxx1112basic_stringIS4_S5_T1_EE(ptr noundef nonnull align 8 dereferenceable(8) %5, ptr noundef nonnull align 8 dereferenceable(32) %.sroa.0.0.copyload.i)
          to label %.preheader unwind label %.loopexit.split-lp

.preheader:                                       ; preds = %11, %_ZStlsIcSt11char_traitsIcEERSt13basic_ostreamIT_T0_ES6_St17basic_string_viewIS3_S4_E.exit
  %.sroa.07.0 = phi ptr [ %13, %_ZStlsIcSt11char_traitsIcEERSt13basic_ostreamIT_T0_ES6_St17basic_string_viewIS3_S4_E.exit ], [ %.sroa.0.0.copyload.i, %11 ]
  %13 = getelementptr inbounds i8, ptr %.sroa.07.0, i64 32
  %.not = icmp eq ptr %13, %.sroa.0.0.copyload.i6
  br i1 %.not, label %18, label %14

14:                                               ; preds = %.preheader
  %15 = invoke noundef nonnull align 8 dereferenceable(8) ptr @_ZSt16__ostream_insertIcSt11char_traitsIcEERSt13basic_ostreamIT_T0_ES6_PKS3_l(ptr noundef nonnull align 8 dereferenceable(8) %5, ptr noundef %3, i64 noundef %2)
          to label %_ZStlsIcSt11char_traitsIcEERSt13basic_ostreamIT_T0_ES6_St17basic_string_viewIS3_S4_E.exit unwind label %.loopexit

_ZStlsIcSt11char_traitsIcEERSt13basic_ostreamIT_T0_ES6_St17basic_string_viewIS3_S4_E.exit: ; preds = %14
  %16 = invoke noundef nonnull align 8 dereferenceable(8) ptr @_ZStlsIcSt11char_traitsIcESaIcEERSt13basic_ostreamIT_T0_ES7_RKNSt7__cxx1112basic_stringIS4_S5_T1_EE(ptr noundef nonnull align 8 dereferenceable(8) %15, ptr noundef nonnull align 8 dereferenceable(32) %13)
          to label %.preheader unwind label %.loopexit, !llvm.loop !982

.loopexit:                                        ; preds = %_ZStlsIcSt11char_traitsIcEERSt13basic_ostreamIT_T0_ES6_St17basic_string_viewIS3_S4_E.exit, %14
  %lpad.loopexit = landingpad { ptr, i32 }
          cleanup
  br label %17

.loopexit.split-lp:                               ; preds = %11, %18
  %lpad.loopexit.split-lp = landingpad { ptr, i32 }
          cleanup
  br label %17

17:                                               ; preds = %.loopexit.split-lp, %.loopexit
  %lpad.phi = phi { ptr, i32 } [ %lpad.loopexit, %.loopexit ], [ %lpad.loopexit.split-lp, %.loopexit.split-lp ]
  call void @_ZNSt7__cxx1119basic_ostringstreamIcSt11char_traitsIcESaIcEED1Ev(ptr noundef nonnull align 8 dereferenceable(112) %5) #23
  resume { ptr, i32 } %lpad.phi

18:                                               ; preds = %.preheader
  invoke void @_ZNKSt7__cxx1119basic_ostringstreamIcSt11char_traitsIcESaIcEE3strEv(ptr dead_on_unwind writable sret(%"class.std::__cxx11::basic_string") align 8 %0, ptr noundef nonnull align 8 dereferenceable(112) %5)
          to label %19 unwind label %.loopexit.split-lp

19:                                               ; preds = %18
  call void @_ZNSt7__cxx1119basic_ostringstreamIcSt11char_traitsIcESaIcEED1Ev(ptr noundef nonnull align 8 dereferenceable(112) %5) #23
  br label %20

20:                                               ; preds = %19, %10
  ret void
}